; Function Attrs: nofree nounwind uwtable
define void @Dau_DecPrintSets(ptr noundef readonly captures(none) %0, i32 noundef %1) local_unnamed_addr #6 {
  %3 = getelementptr i8, ptr %0, i64 4
  %.val = load i32, ptr %3, align 4, !tbaa !33
  %4 = tail call i32 (ptr, ...) @printf(ptr noundef nonnull dereferenceable(1) @.str.6, i32 noundef %1, i32 noundef %.val)
  %.val810 = load i32, ptr %3, align 4, !tbaa !33
  %5 = icmp sgt i32 %.val810, 0
  br i1 %5, label %.lr.ph, label %.critedge

.lr.ph:                                           ; preds = %2
  %6 = getelementptr i8, ptr %0, i64 8
  br label %7

7:                                                ; preds = %.lr.ph, %7
  %indvars.iv = phi i64 [ 0, %.lr.ph ], [ %indvars.iv.next, %7 ]
  %.val9 = load ptr, ptr %6, align 8, !tbaa !36
  %8 = getelementptr inbounds nuw i32, ptr %.val9, i64 %indvars.iv
  %9 = load i32, ptr %8, align 4, !tbaa !3
  tail call void @Dau_DecPrintSet(i32 noundef %9, i32 noundef %1, i32 noundef 1)
  %indvars.iv.next = add nuw nsw i64 %indvars.iv, 1
  %.val8 = load i32, ptr %3, align 4, !tbaa !33
  %10 = sext i32 %.val8 to i64
  %11 = icmp slt i64 %indvars.iv.next, %10
  br i1 %11, label %7, label %.critedge, !llvm.loop !37

.critedge:                                        ; preds = %7, %2
  %putchar = tail call i32 @putchar(i32 10)
  ret void
}